target datalayout = "e-m:e-p270:32:32-p271:32:32-p272:64:64-i64:64-i128:128-f80:128-n8:16:32:64-S128"
target triple = "x86_64-pc-linux-gnu"

%struct.Kit_DsdNtk_t_ = type { i16, i16, i16, i16, ptr, ptr, ptr }

@.str.5 = private unnamed_addr constant [2 x i8] c"!\00", align 1

; Function Attrs: inlinehint nounwind uwtable
define internal i32 @Abc_Lit2Var(i32 noundef %0) #4 {
  %2 = alloca i32, align 4
  store i32 %0, ptr %2, align 4, !tbaa !3
  %3 = load i32, ptr %2, align 4, !tbaa !3
  %4 = ashr i32 %3, 1
  ret i32 %4
}

; Function Attrs: inlinehint nounwind uwtable
define internal i32 @Abc_LitIsCompl(i32 noundef %0) #4 {
  %2 = alloca i32, align 4
  store i32 %0, ptr %2, align 4, !tbaa !3
  %3 = load i32, ptr %2, align 4, !tbaa !3
  %4 = and i32 %3, 1
  ret i32 %4
}

; Function Attrs: nounwind uwtable
define void @Kit_DsdPrint2(ptr noundef %0, ptr noundef %1) #0 {
  %3 = alloca ptr, align 8
  %4 = alloca ptr, align 8
  store ptr %0, ptr %3, align 8, !tbaa !51
  store ptr %1, ptr %4, align 8, !tbaa !37
  %5 = load ptr, ptr %4, align 8, !tbaa !37
  %6 = getelementptr inbounds nuw %struct.Kit_DsdNtk_t_, ptr %5, i32 0, i32 3
  %7 = load i16, ptr %6, align 2, !tbaa !60
  %8 = zext i16 %7 to i32
  %9 = call i32 @Abc_LitIsCompl(i32 noundef %8)
  %10 = icmp ne i32 %9, 0
  br i1 %10, label %11, label %14

11:                                               ; preds = %2
  %12 = load ptr, ptr %3, align 8, !tbaa !51
  %13 = call i32 (ptr, ptr, ...) @fprintf(ptr noundef %12, ptr noundef @.str.5) #9
  br label %14

14:                                               ; preds = %11, %2
  %15 = load ptr, ptr %3, align 8, !tbaa !51
  %16 = load ptr, ptr %4, align 8, !tbaa !37
  %17 = load ptr, ptr %4, align 8, !tbaa !37
  %18 = getelementptr inbounds nuw %struct.Kit_DsdNtk_t_, ptr %17, i32 0, i32 3
  %19 = load i16, ptr %18, align 2, !tbaa !60
  %20 = zext i16 %19 to i32
  %21 = call i32 @Abc_Lit2Var(i32 noundef %20)
  call void @Kit_DsdPrint2_rec(ptr noundef %15, ptr noundef %16, i32 noundef %21)
  ret void
}

; Function Attrs: nounwind uwtable
define ptr @Kit_DsdDecomposeMux(ptr noundef %0, i32 noundef %1, i32 noundef %2) #0 {
  %4 = alloca ptr, align 8
  %5 = alloca i32, align 4
  %6 = alloca i32, align 4
  store ptr %0, ptr %4, align 8, !tbaa !25
  store i32 %1, ptr %5, align 4, !tbaa !3
  store i32 %2, ptr %6, align 4, !tbaa !3
  %7 = load ptr, ptr %4, align 8, !tbaa !25
  %8 = load i32, ptr %5, align 4, !tbaa !3
  %9 = load i32, ptr %6, align 4, !tbaa !3
  %10 = call ptr @Kit_DsdDecomposeInt(ptr noundef %7, i32 noundef %8, i32 noundef %9)
  ret ptr %10
}

; Function Attrs: nounwind uwtable
define void @Kit_DsdPrintFromTruth2(ptr noundef %0, ptr noundef %1, i32 noundef %2) #0 {
  %4 = alloca ptr, align 8
  %5 = alloca ptr, align 8
  %6 = alloca i32, align 4
  %7 = alloca ptr, align 8
  %8 = alloca ptr, align 8
  store ptr %0, ptr %4, align 8, !tbaa !51
  store ptr %1, ptr %5, align 8, !tbaa !25
  store i32 %2, ptr %6, align 4, !tbaa !3
  call void @llvm.lifetime.start.p0(i64 8, ptr %7) #9
  call void @llvm.lifetime.start.p0(i64 8, ptr %8) #9
  %9 = load ptr, ptr %5, align 8, !tbaa !25
  %10 = load i32, ptr %6, align 4, !tbaa !3
  %11 = call ptr @Kit_DsdDecomposeMux(ptr noundef %9, i32 noundef %10, i32 noundef 0)
  store ptr %11, ptr %7, align 8, !tbaa !37
  %12 = load ptr, ptr %7, align 8, !tbaa !37
  %13 = call ptr @Kit_DsdExpand(ptr noundef %12)
  store ptr %13, ptr %8, align 8, !tbaa !37
  %14 = load ptr, ptr %4, align 8, !tbaa !51
  %15 = load ptr, ptr %8, align 8, !tbaa !37
  call void @Kit_DsdPrint2(ptr noundef %14, ptr noundef %15)
  %16 = load ptr, ptr %8, align 8, !tbaa !37
  %17 = load ptr, ptr %5, align 8, !tbaa !25
  %18 = load i32, ptr %6, align 4, !tbaa !3
  call void @Kit_DsdVerify(ptr noundef %16, ptr noundef %17, i32 noundef %18)
  %19 = load ptr, ptr %8, align 8, !tbaa !37
  call void @Kit_DsdNtkFree(ptr noundef %19)
  %20 = load ptr, ptr %7, align 8, !tbaa !37
  call void @Kit_DsdNtkFree(ptr noundef %20)
  call void @llvm.lifetime.end.p0(i64 8, ptr %8) #9
  call void @llvm.lifetime.end.p0(i64 8, ptr %7) #9
  ret void
}