; Function Attrs: nounwind uwtable
define void @Kit_DsdPrintFromTruth2(ptr noundef captures(none) %0, ptr noundef %1, i32 noundef %2) local_unnamed_addr #0 {
  %4 = tail call noundef ptr @Kit_DsdDecomposeInt(ptr noundef %1, i32 noundef %2, i32 noundef 0)
  %5 = tail call ptr @Kit_DsdExpand(ptr noundef %4)
  %6 = getelementptr inbounds nuw i8, ptr %5, i64 6
  %7 = load i16, ptr %6, align 2, !tbaa !51
  %8 = and i16 %7, 1
  %.not.i = icmp eq i16 %8, 0
  br i1 %.not.i, label %Kit_DsdPrint2.exit, label %9

9:                                                ; preds = %3
  %fputc.i = tail call i32 @fputc(i32 33, ptr %0)
  %.pre.i = load i16, ptr %6, align 2, !tbaa !51
  br label %Kit_DsdPrint2.exit

Kit_DsdPrint2.exit:                               ; preds = %3, %9
  %10 = phi i16 [ %.pre.i, %9 ], [ %7, %3 ]
  %11 = lshr i16 %10, 1
  %12 = zext nneg i16 %11 to i32
  tail call void @Kit_DsdPrint2_rec(ptr noundef %0, ptr noundef nonnull readonly %5, i32 noundef %12)
  tail call void @Kit_DsdVerify(ptr noundef nonnull %5, ptr noundef %1, i32 noundef %2)
  tail call void @Kit_DsdNtkFree(ptr noundef nonnull %5)
  tail call void @Kit_DsdNtkFree(ptr noundef %4)
  ret void
}